; Function Attrs: null_pointer_is_valid sspstrong uwtable
define internal fastcc range(i32 9, 17) i32 @dissect_s5066dts_reset_win_resync(ptr noundef %0, i32 noundef range(i32 6, 14) %1, ptr noundef %2) unnamed_addr #0 {
  %4 = load i32, ptr @hf_s5066dts_reset_win_resync_unused, align 4
  %5 = tail call ptr @proto_tree_add_item(ptr noundef %2, i32 noundef %4, ptr noundef %0, i32 noundef %1, i32 noundef 1, i32 noundef 0)
  %6 = load i32, ptr @hf_s5066dts_reset_win_resync_full_reset_command, align 4
  %7 = tail call ptr @proto_tree_add_item(ptr noundef %2, i32 noundef %6, ptr noundef %0, i32 noundef %1, i32 noundef 1, i32 noundef 0)
  %8 = load i32, ptr @hf_s5066dts_reset_win_resync_reset_tx_win_rqst, align 4
  %9 = tail call ptr @proto_tree_add_item(ptr noundef %2, i32 noundef %8, ptr noundef %0, i32 noundef %1, i32 noundef 1, i32 noundef 0)
  %10 = load i32, ptr @hf_s5066dts_reset_win_resync_reset_rx_win_cmnd, align 4
  %11 = tail call ptr @proto_tree_add_item(ptr noundef %2, i32 noundef %10, ptr noundef %0, i32 noundef %1, i32 noundef 1, i32 noundef 0)
  %12 = load i32, ptr @hf_s5066dts_reset_win_resync_reset_ack, align 4
  %13 = tail call ptr @proto_tree_add_item(ptr noundef %2, i32 noundef %12, ptr noundef %0, i32 noundef %1, i32 noundef 1, i32 noundef 0)
  %14 = add nuw nsw i32 %1, 1
  %15 = load i32, ptr @hf_s5066dts_reset_win_resync_new_rx_lwe, align 4
  %16 = tail call ptr @proto_tree_add_item(ptr noundef %2, i32 noundef %15, ptr noundef %0, i32 noundef %14, i32 noundef 1, i32 noundef 0)
  %17 = add nuw nsw i32 %1, 2
  %18 = load i32, ptr @hf_s5066dts_reset_win_resync_reset_frame_id_number, align 4
  %19 = tail call ptr @proto_tree_add_item(ptr noundef %2, i32 noundef %18, ptr noundef %0, i32 noundef %17, i32 noundef 1, i32 noundef 0)
  %20 = add nuw nsw i32 %1, 3
  ret i32 %20
}